target datalayout = "e-m:e-p270:32:32-p271:32:32-p272:64:64-i64:64-i128:128-f80:128-n8:16:32:64-S128"
target triple = "x86_64-pc-linux-gnu"

%struct._packet_info = type { ptr, ptr, i32, i32, %struct.nstime_t, %struct.nstime_t, %struct.nstime_t, i8, ptr, ptr, ptr, ptr, %struct._address, %struct._address, %struct._address, %struct._address, %struct._address, %struct._address, i32, ptr, i8, [3 x i8], %struct.anon, i32, i32, i32, i32, ptr, i8, ptr, ptr, i16, i16, i32, i32, i16, i32, i32, ptr, ptr, ptr, i8, i8, i16, i16, i16, i32, i16, i16, ptr, ptr, ptr, ptr, ptr, i32, i32 }
%struct.nstime_t = type { i64, i32 }
%struct._address = type { i32, i32, ptr, ptr }
%struct.anon = type { i8, [3 x i8] }
%struct._asn1_ctx_t = type { i32, i32, i8, ptr, ptr, ptr, ptr, ptr, %struct.anon.0, %struct.anon.3, %struct.anon.4, ptr }
%struct.anon.0 = type { i32, i8, i8, i8, ptr, ptr, i32, i32, ptr, ptr, ptr, %union.anon }
%union.anon = type { %struct.anon.1 }
%struct.anon.1 = type { ptr }
%struct.anon.3 = type { ptr, ptr, ptr }
%struct.anon.4 = type { i32, i8, ptr, i32, i32, ptr, ptr, ptr, %union.anon.5 }
%union.anon.5 = type { %struct.anon.6 }
%struct.anon.6 = type { ptr }
%struct.nbap_private_data_t = type { i32, i16, i32, i32, i32, i32, i32, i32, i32, i32, i32, i32, i32, i32, i32, i32, i32, i32, i8, i32, i32, i32, i32, i32, i32, i32, i32, i8, i8, [256 x %struct.nbap_dch_channel_info_t], [8 x %struct.nbap_edch_channel_info_t], [8 x i32], [8 x %struct.nbap_hsdsch_channel_info_t], [8 x %struct.nbap_common_channel_info_t], ptr }
%struct.nbap_dch_channel_info_t = type { i32, i32, i32, [64 x i32], [64 x i32], i32, [64 x i32], [64 x i32] }
%struct.nbap_edch_channel_info_t = type { %struct._address, i16, i32, [16 x i8], [16 x i32], i8, [16 x i8] }
%struct.nbap_hsdsch_channel_info_t = type { %struct._address, i16, i32, i32, i8 }
%struct.nbap_common_channel_info_t = type { %struct._address, i16, i32 }

@proto_nbap = internal global i32 0, align 4

; Function Attrs: null_pointer_is_valid sspstrong uwtable
define internal ptr @nbap_get_private_data(ptr noundef %0) #0 {
  %2 = alloca ptr, align 8
  %3 = alloca i8, align 1
  %4 = alloca ptr, align 8
  store ptr %0, ptr %2, align 8
  call void @llvm.lifetime.start.p0(i64 1, ptr %3) #13
  call void @llvm.lifetime.start.p0(i64 8, ptr %4) #13
  %5 = load ptr, ptr %2, align 8
  %6 = getelementptr inbounds nuw %struct._packet_info, ptr %5, i32 0, i32 51
  %7 = load ptr, ptr %6, align 8
  %8 = load ptr, ptr %2, align 8
  %9 = load i32, ptr @proto_nbap, align 4
  %10 = call ptr @p_get_proto_data(ptr noundef %7, ptr noundef %8, i32 noundef %9, i32 noundef 0)
  store ptr %10, ptr %4, align 8
  %11 = load ptr, ptr %4, align 8
  %12 = icmp eq ptr %11, null
  br i1 %12, label %13, label %49

13:                                               ; preds = %1
  %14 = load ptr, ptr %2, align 8
  %15 = getelementptr inbounds nuw %struct._packet_info, ptr %14, i32 0, i32 51
  %16 = load ptr, ptr %15, align 8
  %17 = call noalias ptr @wmem_alloc0(ptr noundef %16, i64 noundef 268056) #14
  store ptr %17, ptr %4, align 8
  %18 = load ptr, ptr %2, align 8
  %19 = getelementptr inbounds nuw %struct._packet_info, ptr %18, i32 0, i32 51
  %20 = load ptr, ptr %19, align 8
  %21 = load ptr, ptr %2, align 8
  %22 = load i32, ptr @proto_nbap, align 4
  %23 = load ptr, ptr %4, align 8
  call void @p_add_proto_data(ptr noundef %20, ptr noundef %21, i32 noundef %22, i32 noundef 0, ptr noundef %23)
  %24 = load ptr, ptr %4, align 8
  %25 = getelementptr inbounds nuw %struct.nbap_private_data_t, ptr %24, i32 0, i32 17
  store i32 3, ptr %25, align 4
  %26 = load ptr, ptr %4, align 8
  %27 = getelementptr inbounds nuw %struct.nbap_private_data_t, ptr %26, i32 0, i32 27
  store i8 0, ptr %27, align 4
  %28 = load ptr, ptr %4, align 8
  %29 = getelementptr inbounds nuw %struct.nbap_private_data_t, ptr %28, i32 0, i32 3
  store i32 65535, ptr %29, align 4
  %30 = load ptr, ptr %4, align 8
  %31 = getelementptr inbounds nuw %struct.nbap_private_data_t, ptr %30, i32 0, i32 10
  store i32 65535, ptr %31, align 8
  %32 = load ptr, ptr %4, align 8
  %33 = getelementptr inbounds nuw %struct.nbap_private_data_t, ptr %32, i32 0, i32 28
  store i8 2, ptr %33, align 1
  store i8 0, ptr %3, align 1
  br label %34

34:                                               ; preds = %45, %13
  %35 = load i8, ptr %3, align 1
  %36 = zext i8 %35 to i32
  %37 = icmp slt i32 %36, 8
  br i1 %37, label %38, label %48

38:                                               ; preds = %34
  %39 = load ptr, ptr %4, align 8
  %40 = getelementptr inbounds nuw %struct.nbap_private_data_t, ptr %39, i32 0, i32 32
  %41 = load i8, ptr %3, align 1
  %42 = zext i8 %41 to i64
  %43 = getelementptr [8 x %struct.nbap_hsdsch_channel_info_t], ptr %40, i64 0, i64 %42
  %44 = getelementptr inbounds nuw %struct.nbap_hsdsch_channel_info_t, ptr %43, i32 0, i32 4
  store i8 1, ptr %44, align 4
  br label %45

45:                                               ; preds = %38
  %46 = load i8, ptr %3, align 1
  %47 = add i8 %46, 1
  store i8 %47, ptr %3, align 1
  br label %34, !llvm.loop !9

48:                                               ; preds = %34
  br label %49

49:                                               ; preds = %48, %1
  %50 = load ptr, ptr %4, align 8
  call void @llvm.lifetime.end.p0(i64 8, ptr %4) #13
  call void @llvm.lifetime.end.p0(i64 1, ptr %3) #13
  ret ptr %50
}

; Function Attrs: null_pointer_is_valid sspstrong uwtable
define internal i32 @dissect_nbap_TransportFormatSet_NrOfTransportBlocks(ptr noundef %0, i32 noundef %1, ptr noundef %2, ptr noundef %3, i32 noundef %4) #0 {
  %6 = alloca ptr, align 8
  %7 = alloca i32, align 4
  %8 = alloca ptr, align 8
  %9 = alloca ptr, align 8
  %10 = alloca i32, align 4
  %11 = alloca i32, align 4
  %12 = alloca i32, align 4
  %13 = alloca i32, align 4
  %14 = alloca i32, align 4
  %15 = alloca i32, align 4
  %16 = alloca ptr, align 8
  %17 = alloca ptr, align 8
  store ptr %0, ptr %6, align 8
  store i32 %1, ptr %7, align 4
  store ptr %2, ptr %8, align 8
  store ptr %3, ptr %9, align 8
  store i32 %4, ptr %10, align 4
  call void @llvm.lifetime.start.p0(i64 4, ptr %11) #13
  call void @llvm.lifetime.start.p0(i64 4, ptr %12) #13
  call void @llvm.lifetime.start.p0(i64 4, ptr %13) #13
  call void @llvm.lifetime.start.p0(i64 4, ptr %14) #13
  call void @llvm.lifetime.start.p0(i64 4, ptr %15) #13
  call void @llvm.lifetime.start.p0(i64 8, ptr %16) #13
  call void @llvm.lifetime.start.p0(i64 8, ptr %17) #13
  %18 = load ptr, ptr %8, align 8
  %19 = getelementptr inbounds nuw %struct._asn1_ctx_t, ptr %18, i32 0, i32 3
  %20 = load ptr, ptr %19, align 8
  %21 = call ptr @nbap_get_private_data(ptr noundef %20)
  store ptr %21, ptr %17, align 8
  %22 = load ptr, ptr %17, align 8
  %23 = getelementptr inbounds nuw %struct.nbap_private_data_t, ptr %22, i32 0, i32 29
  %24 = getelementptr inbounds [256 x %struct.nbap_dch_channel_info_t], ptr %23, i64 0, i64 0
  store ptr %24, ptr %16, align 8
  %25 = load ptr, ptr %6, align 8
  %26 = load i32, ptr %7, align 4
  %27 = load ptr, ptr %8, align 8
  %28 = load ptr, ptr %9, align 8
  %29 = load i32, ptr %10, align 4
  %30 = call i32 @dissect_per_constrained_integer(ptr noundef %25, i32 noundef %26, ptr noundef %27, ptr noundef %28, i32 noundef %29, i32 noundef 0, i32 noundef 512, ptr noundef %11, i1 noundef zeroext false)
  store i32 %30, ptr %7, align 4
  %31 = load ptr, ptr %17, align 8
  %32 = getelementptr inbounds nuw %struct.nbap_private_data_t, ptr %31, i32 0, i32 4
  %33 = load i32, ptr %32, align 8
  %34 = icmp ugt i32 %33, 0
  br i1 %34, label %35, label %169

35:                                               ; preds = %5
  %36 = load ptr, ptr %17, align 8
  %37 = getelementptr inbounds nuw %struct.nbap_private_data_t, ptr %36, i32 0, i32 4
  %38 = load i32, ptr %37, align 8
  store i32 %38, ptr %12, align 4
  %39 = load ptr, ptr %17, align 8
  %40 = getelementptr inbounds nuw %struct.nbap_private_data_t, ptr %39, i32 0, i32 13
  %41 = load i32, ptr %40, align 4
  store i32 %41, ptr %13, align 4
  %42 = load i32, ptr %12, align 4
  %43 = icmp ugt i32 %42, 0
  br i1 %43, label %44, label %168

44:                                               ; preds = %35
  %45 = load i32, ptr %12, align 4
  %46 = icmp ult i32 %45, 65
  br i1 %46, label %47, label %168

47:                                               ; preds = %44
  %48 = load i32, ptr %13, align 4
  %49 = icmp ne i32 %48, -1
  br i1 %49, label %50, label %168

50:                                               ; preds = %47
  %51 = load ptr, ptr %17, align 8
  %52 = getelementptr inbounds nuw %struct.nbap_private_data_t, ptr %51, i32 0, i32 15
  %53 = load i32, ptr %52, align 4
  store i32 %53, ptr %14, align 4
  %54 = load ptr, ptr %17, align 8
  %55 = getelementptr inbounds nuw %struct.nbap_private_data_t, ptr %54, i32 0, i32 23
  %56 = load i32, ptr %55, align 4
  store i32 %56, ptr %15, align 4
  %57 = load ptr, ptr %17, align 8
  %58 = getelementptr inbounds nuw %struct.nbap_private_data_t, ptr %57, i32 0, i32 2
  %59 = load i32, ptr %58, align 8
  switch i32 %59, label %166 [
    i32 0, label %60
    i32 1, label %78
    i32 2, label %96
    i32 4, label %131
  ]

60:                                               ; preds = %50
  %61 = load ptr, ptr %16, align 8
  %62 = load i32, ptr %13, align 4
  %63 = zext i32 %62 to i64
  %64 = getelementptr %struct.nbap_dch_channel_info_t, ptr %61, i64 %63
  %65 = getelementptr inbounds nuw %struct.nbap_dch_channel_info_t, ptr %64, i32 0, i32 2
  %66 = load i32, ptr %65, align 4
  %67 = add i32 %66, 1
  store i32 %67, ptr %65, align 4
  %68 = load i32, ptr %11, align 4
  %69 = load ptr, ptr %16, align 8
  %70 = load i32, ptr %13, align 4
  %71 = zext i32 %70 to i64
  %72 = getelementptr %struct.nbap_dch_channel_info_t, ptr %69, i64 %71
  %73 = getelementptr inbounds nuw %struct.nbap_dch_channel_info_t, ptr %72, i32 0, i32 4
  %74 = load i32, ptr %12, align 4
  %75 = sub i32 %74, 1
  %76 = zext i32 %75 to i64
  %77 = getelementptr [64 x i32], ptr %73, i64 0, i64 %76
  store i32 %68, ptr %77, align 4
  br label %167

78:                                               ; preds = %50
  %79 = load ptr, ptr %16, align 8
  %80 = load i32, ptr %13, align 4
  %81 = zext i32 %80 to i64
  %82 = getelementptr %struct.nbap_dch_channel_info_t, ptr %79, i64 %81
  %83 = getelementptr inbounds nuw %struct.nbap_dch_channel_info_t, ptr %82, i32 0, i32 5
  %84 = load i32, ptr %83, align 4
  %85 = add i32 %84, 1
  store i32 %85, ptr %83, align 4
  %86 = load i32, ptr %11, align 4
  %87 = load ptr, ptr %16, align 8
  %88 = load i32, ptr %13, align 4
  %89 = zext i32 %88 to i64
  %90 = getelementptr %struct.nbap_dch_channel_info_t, ptr %87, i64 %89
  %91 = getelementptr inbounds nuw %struct.nbap_dch_channel_info_t, ptr %90, i32 0, i32 7
  %92 = load i32, ptr %12, align 4
  %93 = sub i32 %92, 1
  %94 = zext i32 %93 to i64
  %95 = getelementptr [64 x i32], ptr %91, i64 0, i64 %94
  store i32 %86, ptr %95, align 4
  br label %167

96:                                               ; preds = %50
  %97 = load ptr, ptr %16, align 8
  %98 = load i32, ptr %14, align 4
  %99 = zext i32 %98 to i64
  %100 = getelementptr %struct.nbap_dch_channel_info_t, ptr %97, i64 %99
  %101 = getelementptr inbounds nuw %struct.nbap_dch_channel_info_t, ptr %100, i32 0, i32 2
  %102 = load i32, ptr %101, align 4
  %103 = add i32 %102, 1
  store i32 %103, ptr %101, align 4
  %104 = load i32, ptr %11, align 4
  %105 = load ptr, ptr %16, align 8
  %106 = load i32, ptr %14, align 4
  %107 = zext i32 %106 to i64
  %108 = getelementptr %struct.nbap_dch_channel_info_t, ptr %105, i64 %107
  %109 = getelementptr inbounds nuw %struct.nbap_dch_channel_info_t, ptr %108, i32 0, i32 4
  %110 = load i32, ptr %12, align 4
  %111 = sub i32 %110, 1
  %112 = zext i32 %111 to i64
  %113 = getelementptr [64 x i32], ptr %109, i64 0, i64 %112
  store i32 %104, ptr %113, align 4
  %114 = load ptr, ptr %16, align 8
  %115 = load i32, ptr %14, align 4
  %116 = zext i32 %115 to i64
  %117 = getelementptr %struct.nbap_dch_channel_info_t, ptr %114, i64 %116
  %118 = getelementptr inbounds nuw %struct.nbap_dch_channel_info_t, ptr %117, i32 0, i32 5
  %119 = load i32, ptr %118, align 4
  %120 = add i32 %119, 1
  store i32 %120, ptr %118, align 4
  %121 = load i32, ptr %11, align 4
  %122 = load ptr, ptr %16, align 8
  %123 = load i32, ptr %14, align 4
  %124 = zext i32 %123 to i64
  %125 = getelementptr %struct.nbap_dch_channel_info_t, ptr %122, i64 %124
  %126 = getelementptr inbounds nuw %struct.nbap_dch_channel_info_t, ptr %125, i32 0, i32 7
  %127 = load i32, ptr %12, align 4
  %128 = sub i32 %127, 1
  %129 = zext i32 %128 to i64
  %130 = getelementptr [64 x i32], ptr %126, i64 0, i64 %129
  store i32 %121, ptr %130, align 4
  br label %167

131:                                              ; preds = %50
  %132 = load ptr, ptr %16, align 8
  %133 = load i32, ptr %15, align 4
  %134 = zext i32 %133 to i64
  %135 = getelementptr %struct.nbap_dch_channel_info_t, ptr %132, i64 %134
  %136 = getelementptr inbounds nuw %struct.nbap_dch_channel_info_t, ptr %135, i32 0, i32 2
  %137 = load i32, ptr %136, align 4
  %138 = add i32 %137, 1
  store i32 %138, ptr %136, align 4
  %139 = load i32, ptr %11, align 4
  %140 = load ptr, ptr %16, align 8
  %141 = load i32, ptr %15, align 4
  %142 = zext i32 %141 to i64
  %143 = getelementptr %struct.nbap_dch_channel_info_t, ptr %140, i64 %142
  %144 = getelementptr inbounds nuw %struct.nbap_dch_channel_info_t, ptr %143, i32 0, i32 4
  %145 = load i32, ptr %12, align 4
  %146 = sub i32 %145, 1
  %147 = zext i32 %146 to i64
  %148 = getelementptr [64 x i32], ptr %144, i64 0, i64 %147
  store i32 %139, ptr %148, align 4
  %149 = load ptr, ptr %16, align 8
  %150 = load i32, ptr %15, align 4
  %151 = zext i32 %150 to i64
  %152 = getelementptr %struct.nbap_dch_channel_info_t, ptr %149, i64 %151
  %153 = getelementptr inbounds nuw %struct.nbap_dch_channel_info_t, ptr %152, i32 0, i32 5
  %154 = load i32, ptr %153, align 4
  %155 = add i32 %154, 1
  store i32 %155, ptr %153, align 4
  %156 = load i32, ptr %11, align 4
  %157 = load ptr, ptr %16, align 8
  %158 = load i32, ptr %15, align 4
  %159 = zext i32 %158 to i64
  %160 = getelementptr %struct.nbap_dch_channel_info_t, ptr %157, i64 %159
  %161 = getelementptr inbounds nuw %struct.nbap_dch_channel_info_t, ptr %160, i32 0, i32 7
  %162 = load i32, ptr %12, align 4
  %163 = sub i32 %162, 1
  %164 = zext i32 %163 to i64
  %165 = getelementptr [64 x i32], ptr %161, i64 0, i64 %164
  store i32 %156, ptr %165, align 4
  br label %167

166:                                              ; preds = %50
  br label %167

167:                                              ; preds = %166, %131, %96, %78, %60
  br label %168

168:                                              ; preds = %167, %47, %44, %35
  br label %169

169:                                              ; preds = %168, %5
  %170 = load i32, ptr %7, align 4
  call void @llvm.lifetime.end.p0(i64 8, ptr %17) #13
  call void @llvm.lifetime.end.p0(i64 8, ptr %16) #13
  call void @llvm.lifetime.end.p0(i64 4, ptr %15) #13
  call void @llvm.lifetime.end.p0(i64 4, ptr %14) #13
  call void @llvm.lifetime.end.p0(i64 4, ptr %13) #13
  call void @llvm.lifetime.end.p0(i64 4, ptr %12) #13
  call void @llvm.lifetime.end.p0(i64 4, ptr %11) #13
  ret i32 %170
}