; Function Attrs: null_pointer_is_valid sspstrong uwtable
define internal i32 @dissect_nbap_TransportFormatSet_NrOfTransportBlocks(ptr noundef %0, i32 noundef %1, ptr noundef %2, ptr noundef %3, i32 noundef %4) #0 {
  %6 = alloca i32, align 4
  call void @llvm.lifetime.start.p0(i64 4, ptr nonnull %6) #9
  %7 = getelementptr inbounds nuw i8, ptr %2, i64 16
  %8 = load ptr, ptr %7, align 8
  %9 = getelementptr inbounds nuw i8, ptr %8, i64 408
  %10 = load ptr, ptr %9, align 8
  %11 = load i32, ptr @proto_nbap, align 4
  %12 = tail call ptr @p_get_proto_data(ptr noundef %10, ptr noundef %8, i32 noundef %11, i32 noundef 0)
  %13 = icmp eq ptr %12, null
  br i1 %13, label %14, label %nbap_get_private_data.exit

14:                                               ; preds = %5
  %15 = load ptr, ptr %9, align 8
  %16 = tail call noalias dereferenceable_or_null(268056) ptr @wmem_alloc0(ptr noundef %15, i64 noundef 268056) #10
  %17 = load ptr, ptr %9, align 8
  %18 = load i32, ptr @proto_nbap, align 4
  tail call void @p_add_proto_data(ptr noundef %17, ptr noundef %8, i32 noundef %18, i32 noundef 0, ptr noundef %16)
  %19 = getelementptr inbounds nuw i8, ptr %16, i64 68
  store i32 3, ptr %19, align 4
  %20 = getelementptr inbounds nuw i8, ptr %16, i64 108
  store i8 0, ptr %20, align 4
  %21 = getelementptr inbounds nuw i8, ptr %16, i64 12
  store i32 65535, ptr %21, align 4
  %22 = getelementptr inbounds nuw i8, ptr %16, i64 40
  store i32 65535, ptr %22, align 8
  %23 = getelementptr inbounds nuw i8, ptr %16, i64 109
  store i8 2, ptr %23, align 1
  %24 = getelementptr i8, ptr %16, i64 267508
  br label %25

25:                                               ; preds = %25, %14
  %indvars.iv.i = phi i64 [ 0, %14 ], [ %indvars.iv.next.i, %25 ]
  %.idx.i = mul nuw nsw i64 %indvars.iv.i, 40
  %26 = getelementptr i8, ptr %24, i64 %.idx.i
  store i8 1, ptr %26, align 4
  %indvars.iv.next.i = add nuw nsw i64 %indvars.iv.i, 1
  %exitcond.not.i = icmp eq i64 %indvars.iv.next.i, 8
  br i1 %exitcond.not.i, label %nbap_get_private_data.exit, label %25, !llvm.loop !9

nbap_get_private_data.exit:                       ; preds = %25, %5
  %.0.i = phi ptr [ %12, %5 ], [ %16, %25 ]
  %27 = getelementptr inbounds nuw i8, ptr %.0.i, i64 112
  %28 = call i32 @dissect_per_constrained_integer(ptr noundef %0, i32 noundef %1, ptr noundef %2, ptr noundef %3, i32 noundef %4, i32 noundef 0, i32 noundef 512, ptr noundef nonnull %6, i1 noundef zeroext false)
  %29 = getelementptr inbounds nuw i8, ptr %.0.i, i64 16
  %30 = load i32, ptr %29, align 8
  %.not = icmp eq i32 %30, 0
  br i1 %.not, label %97, label %31

31:                                               ; preds = %nbap_get_private_data.exit
  %32 = getelementptr inbounds nuw i8, ptr %.0.i, i64 52
  %33 = load i32, ptr %32, align 4
  %34 = icmp ult i32 %30, 65
  %35 = icmp ne i32 %33, -1
  %or.cond3 = select i1 %34, i1 %35, i1 false
  br i1 %or.cond3, label %36, label %97

36:                                               ; preds = %31
  %37 = getelementptr inbounds nuw i8, ptr %.0.i, i64 8
  %38 = load i32, ptr %37, align 8
  switch i32 %38, label %97 [
    i32 0, label %39
    i32 1, label %50
    i32 2, label %61
    i32 4, label %79
  ]

39:                                               ; preds = %36
  %40 = zext i32 %33 to i64
  %41 = getelementptr %struct.nbap_dch_channel_info_t, ptr %27, i64 %40
  %42 = getelementptr inbounds nuw i8, ptr %41, i64 8
  %43 = load i32, ptr %42, align 4
  %44 = add i32 %43, 1
  store i32 %44, ptr %42, align 4
  %45 = load i32, ptr %6, align 4
  %46 = getelementptr inbounds nuw i8, ptr %41, i64 268
  %47 = add nsw i32 %30, -1
  %48 = zext nneg i32 %47 to i64
  %49 = getelementptr [64 x i32], ptr %46, i64 0, i64 %48
  store i32 %45, ptr %49, align 4
  br label %97

50:                                               ; preds = %36
  %51 = zext i32 %33 to i64
  %52 = getelementptr %struct.nbap_dch_channel_info_t, ptr %27, i64 %51
  %53 = getelementptr inbounds nuw i8, ptr %52, i64 524
  %54 = load i32, ptr %53, align 4
  %55 = add i32 %54, 1
  store i32 %55, ptr %53, align 4
  %56 = load i32, ptr %6, align 4
  %57 = getelementptr inbounds nuw i8, ptr %52, i64 784
  %58 = add nsw i32 %30, -1
  %59 = zext nneg i32 %58 to i64
  %60 = getelementptr [64 x i32], ptr %57, i64 0, i64 %59
  store i32 %56, ptr %60, align 4
  br label %97

61:                                               ; preds = %36
  %62 = getelementptr inbounds nuw i8, ptr %.0.i, i64 60
  %63 = load i32, ptr %62, align 4
  %64 = zext i32 %63 to i64
  %65 = getelementptr %struct.nbap_dch_channel_info_t, ptr %27, i64 %64
  %66 = getelementptr inbounds nuw i8, ptr %65, i64 8
  %67 = load i32, ptr %66, align 4
  %68 = add i32 %67, 1
  store i32 %68, ptr %66, align 4
  %69 = load i32, ptr %6, align 4
  %70 = getelementptr inbounds nuw i8, ptr %65, i64 268
  %71 = add nsw i32 %30, -1
  %72 = zext nneg i32 %71 to i64
  %73 = getelementptr [64 x i32], ptr %70, i64 0, i64 %72
  store i32 %69, ptr %73, align 4
  %74 = getelementptr inbounds nuw i8, ptr %65, i64 524
  %75 = load i32, ptr %74, align 4
  %76 = add i32 %75, 1
  store i32 %76, ptr %74, align 4
  %77 = getelementptr inbounds nuw i8, ptr %65, i64 784
  %78 = getelementptr [64 x i32], ptr %77, i64 0, i64 %72
  store i32 %69, ptr %78, align 4
  br label %97

79:                                               ; preds = %36
  %80 = getelementptr inbounds nuw i8, ptr %.0.i, i64 92
  %81 = load i32, ptr %80, align 4
  %82 = zext i32 %81 to i64
  %83 = getelementptr %struct.nbap_dch_channel_info_t, ptr %27, i64 %82
  %84 = getelementptr inbounds nuw i8, ptr %83, i64 8
  %85 = load i32, ptr %84, align 4
  %86 = add i32 %85, 1
  store i32 %86, ptr %84, align 4
  %87 = load i32, ptr %6, align 4
  %88 = getelementptr inbounds nuw i8, ptr %83, i64 268
  %89 = add nsw i32 %30, -1
  %90 = zext nneg i32 %89 to i64
  %91 = getelementptr [64 x i32], ptr %88, i64 0, i64 %90
  store i32 %87, ptr %91, align 4
  %92 = getelementptr inbounds nuw i8, ptr %83, i64 524
  %93 = load i32, ptr %92, align 4
  %94 = add i32 %93, 1
  store i32 %94, ptr %92, align 4
  %95 = getelementptr inbounds nuw i8, ptr %83, i64 784
  %96 = getelementptr [64 x i32], ptr %95, i64 0, i64 %90
  store i32 %87, ptr %96, align 4
  br label %97

97:                                               ; preds = %31, %36, %79, %61, %50, %39, %nbap_get_private_data.exit
  call void @llvm.lifetime.end.p0(i64 4, ptr nonnull %6) #9
  ret i32 %28
}